; Function Attrs: nounwind uwtable
define internal noundef zeroext i1 @HIDAPI_DriverPS3SonySixaxis_OpenJoystick(ptr noundef readonly captures(none) %0, ptr noundef %1) #0 {
  %3 = getelementptr inbounds nuw i8, ptr %0, i64 112
  %4 = load ptr, ptr %3, align 8
  tail call void @SDL_AssertJoysticksLocked() #10
  %5 = getelementptr inbounds nuw i8, ptr %4, i64 8
  store ptr %1, ptr %5, align 8
  %6 = getelementptr inbounds nuw i8, ptr %4, i64 19
  store i8 0, ptr %6, align 1
  %7 = getelementptr inbounds nuw i8, ptr %4, i64 24
  tail call void @llvm.memset.p0.i64(ptr noundef nonnull align 8 dereferenceable(66) %7, i8 0, i64 66, i1 false)
  %8 = tail call i32 @SDL_GetJoystickPlayerIndex_REAL(ptr noundef %1) #10
  %9 = getelementptr inbounds nuw i8, ptr %4, i64 20
  store i32 %8, ptr %9, align 4
  %10 = getelementptr inbounds nuw i8, ptr %1, i64 112
  store i32 11, ptr %10, align 8
  %11 = getelementptr inbounds nuw i8, ptr %1, i64 68
  store i32 6, ptr %11, align 4
  %12 = getelementptr inbounds nuw i8, ptr %4, i64 17
  %13 = load i8, ptr %12, align 1, !range !3, !noundef !4
  %14 = trunc nuw i8 %13 to i1
  %spec.store.select = select i1 %14, i32 16, i32 6
  store i32 %spec.store.select, ptr %11, align 4
  %15 = getelementptr inbounds nuw i8, ptr %1, i64 96
  store i32 1, ptr %15, align 8
  tail call void @SDL_PrivateJoystickAddSensor(ptr noundef %1, i32 noundef 1, float noundef 1.000000e+02) #10
  ret i1 true
}